; Function Attrs: mustprogress nounwind uwtable
define internal fastcc void @_ZN5clang19RecursiveASTVisitorIN12_GLOBAL__N_111TypeIndexerEE30TraverseOMPDeclareSimdDeclAttrEPNS_22OMPDeclareSimdDeclAttrE(ptr noundef nonnull readonly align 1 captures(none) dereferenceable(1) %0, ptr noundef readonly captures(none) %1) unnamed_addr #0 align 2 {
  %3 = getelementptr inbounds nuw i8, ptr %1, i64 40
  %4 = load ptr, ptr %3, align 8
  %5 = load ptr, ptr %0, align 8
  %6 = getelementptr inbounds nuw i8, ptr %0, i64 8
  %7 = load ptr, ptr %6, align 8
  %8 = getelementptr inbounds nuw i8, ptr %0, i64 16
  %9 = load ptr, ptr %8, align 8
  tail call void @_ZN5clang5index15IndexingContext9indexBodyEPKNS_4StmtEPKNS_9NamedDeclEPKNS_11DeclContextE(ptr noundef nonnull align 8 dereferenceable(64) %5, ptr noundef %4, ptr noundef %7, ptr noundef %9) #13
  %10 = getelementptr inbounds nuw i8, ptr %1, i64 56
  %11 = load ptr, ptr %10, align 8
  %12 = getelementptr inbounds nuw i8, ptr %1, i64 48
  %13 = load i32, ptr %12, align 8
  %14 = zext i32 %13 to i64
  %15 = getelementptr inbounds nuw ptr, ptr %11, i64 %14
  %.not44 = icmp eq i32 %13, 0
  br i1 %.not44, label %._crit_edge, label %.lr.ph

.lr.ph:                                           ; preds = %2, %.lr.ph
  %.03645 = phi ptr [ %20, %.lr.ph ], [ %11, %2 ]
  %16 = load ptr, ptr %.03645, align 8
  %17 = load ptr, ptr %0, align 8
  %18 = load ptr, ptr %6, align 8
  %19 = load ptr, ptr %8, align 8
  tail call void @_ZN5clang5index15IndexingContext9indexBodyEPKNS_4StmtEPKNS_9NamedDeclEPKNS_11DeclContextE(ptr noundef nonnull align 8 dereferenceable(64) %17, ptr noundef %16, ptr noundef %18, ptr noundef %19) #13
  %20 = getelementptr inbounds nuw i8, ptr %.03645, i64 8
  %.not = icmp eq ptr %20, %15
  br i1 %.not, label %._crit_edge, label %.lr.ph, !llvm.loop !45

._crit_edge:                                      ; preds = %.lr.ph, %2
  %21 = getelementptr inbounds nuw i8, ptr %1, i64 72
  %22 = load ptr, ptr %21, align 8
  %23 = getelementptr inbounds nuw i8, ptr %1, i64 64
  %24 = load i32, ptr %23, align 8
  %25 = zext i32 %24 to i64
  %26 = getelementptr inbounds nuw ptr, ptr %22, i64 %25
  %.not4046 = icmp eq i32 %24, 0
  br i1 %.not4046, label %._crit_edge50, label %.lr.ph49

.lr.ph49:                                         ; preds = %._crit_edge, %.lr.ph49
  %.03847 = phi ptr [ %31, %.lr.ph49 ], [ %22, %._crit_edge ]
  %27 = load ptr, ptr %.03847, align 8
  %28 = load ptr, ptr %0, align 8
  %29 = load ptr, ptr %6, align 8
  %30 = load ptr, ptr %8, align 8
  tail call void @_ZN5clang5index15IndexingContext9indexBodyEPKNS_4StmtEPKNS_9NamedDeclEPKNS_11DeclContextE(ptr noundef nonnull align 8 dereferenceable(64) %28, ptr noundef %27, ptr noundef %29, ptr noundef %30) #13
  %31 = getelementptr inbounds nuw i8, ptr %.03847, i64 8
  %.not40 = icmp eq ptr %31, %26
  br i1 %.not40, label %._crit_edge50, label %.lr.ph49, !llvm.loop !46

._crit_edge50:                                    ; preds = %.lr.ph49, %._crit_edge
  %32 = getelementptr inbounds nuw i8, ptr %1, i64 88
  %33 = load ptr, ptr %32, align 8
  %34 = getelementptr inbounds nuw i8, ptr %1, i64 80
  %35 = load i32, ptr %34, align 8
  %36 = zext i32 %35 to i64
  %37 = getelementptr inbounds nuw ptr, ptr %33, i64 %36
  %.not4151 = icmp eq i32 %35, 0
  br i1 %.not4151, label %._crit_edge55, label %.lr.ph54

.lr.ph54:                                         ; preds = %._crit_edge50, %.lr.ph54
  %.03952 = phi ptr [ %42, %.lr.ph54 ], [ %33, %._crit_edge50 ]
  %38 = load ptr, ptr %.03952, align 8
  %39 = load ptr, ptr %0, align 8
  %40 = load ptr, ptr %6, align 8
  %41 = load ptr, ptr %8, align 8
  tail call void @_ZN5clang5index15IndexingContext9indexBodyEPKNS_4StmtEPKNS_9NamedDeclEPKNS_11DeclContextE(ptr noundef nonnull align 8 dereferenceable(64) %39, ptr noundef %38, ptr noundef %40, ptr noundef %41) #13
  %42 = getelementptr inbounds nuw i8, ptr %.03952, i64 8
  %.not41 = icmp eq ptr %42, %37
  br i1 %.not41, label %._crit_edge55, label %.lr.ph54, !llvm.loop !47

._crit_edge55:                                    ; preds = %.lr.ph54, %._crit_edge50
  %43 = getelementptr inbounds nuw i8, ptr %1, i64 104
  %44 = load ptr, ptr %43, align 8
  %45 = getelementptr inbounds nuw i8, ptr %1, i64 96
  %46 = load i32, ptr %45, align 8
  %47 = zext i32 %46 to i64
  %48 = getelementptr inbounds nuw ptr, ptr %44, i64 %47
  %.not4256 = icmp eq i32 %46, 0
  br i1 %.not4256, label %._crit_edge60, label %.lr.ph59

.lr.ph59:                                         ; preds = %._crit_edge55, %.lr.ph59
  %.03757 = phi ptr [ %53, %.lr.ph59 ], [ %44, %._crit_edge55 ]
  %49 = load ptr, ptr %.03757, align 8
  %50 = load ptr, ptr %0, align 8
  %51 = load ptr, ptr %6, align 8
  %52 = load ptr, ptr %8, align 8
  tail call void @_ZN5clang5index15IndexingContext9indexBodyEPKNS_4StmtEPKNS_9NamedDeclEPKNS_11DeclContextE(ptr noundef nonnull align 8 dereferenceable(64) %50, ptr noundef %49, ptr noundef %51, ptr noundef %52) #13
  %53 = getelementptr inbounds nuw i8, ptr %.03757, i64 8
  %.not42 = icmp eq ptr %53, %48
  br i1 %.not42, label %._crit_edge60, label %.lr.ph59, !llvm.loop !48

._crit_edge60:                                    ; preds = %.lr.ph59, %._crit_edge55
  %54 = getelementptr inbounds nuw i8, ptr %1, i64 136
  %55 = load ptr, ptr %54, align 8
  %56 = getelementptr inbounds nuw i8, ptr %1, i64 128
  %57 = load i32, ptr %56, align 8
  %58 = zext i32 %57 to i64
  %59 = getelementptr inbounds nuw ptr, ptr %55, i64 %58
  %.not4361 = icmp eq i32 %57, 0
  br i1 %.not4361, label %._crit_edge65, label %.lr.ph64

.lr.ph64:                                         ; preds = %._crit_edge60, %.lr.ph64
  %.03562 = phi ptr [ %64, %.lr.ph64 ], [ %55, %._crit_edge60 ]
  %60 = load ptr, ptr %.03562, align 8
  %61 = load ptr, ptr %0, align 8
  %62 = load ptr, ptr %6, align 8
  %63 = load ptr, ptr %8, align 8
  tail call void @_ZN5clang5index15IndexingContext9indexBodyEPKNS_4StmtEPKNS_9NamedDeclEPKNS_11DeclContextE(ptr noundef nonnull align 8 dereferenceable(64) %61, ptr noundef %60, ptr noundef %62, ptr noundef %63) #13
  %64 = getelementptr inbounds nuw i8, ptr %.03562, i64 8
  %.not43 = icmp eq ptr %64, %59
  br i1 %.not43, label %._crit_edge65, label %.lr.ph64, !llvm.loop !49

._crit_edge65:                                    ; preds = %.lr.ph64, %._crit_edge60
  ret void
}